target datalayout = "e-m:e-p270:32:32-p271:32:32-p272:64:64-i64:64-i128:128-f80:128-n8:16:32:64-S128"
target triple = "x86_64-pc-linux-gnu"

%struct.rb_iseq_struct = type { i64, i64, ptr, %union.anon.15 }
%union.anon.15 = type { %struct.anon.16 }
%struct.anon.16 = type { i64, i32 }
%struct.rb_iseq_constant_body = type { i32, i32, ptr, %struct.anon.18, %struct.rb_iseq_location_struct, %struct.iseq_insn_info, ptr, ptr, ptr, ptr, ptr, ptr, %struct.anon.19, i32, i32, i32, i32, i32, i32, i32, i32, i8, %union.anon.20, ptr, ptr, ptr, i64, ptr, i64, ptr, i64 }
%struct.anon.18 = type { %struct.anon, i32, i32, i32, i32, i32, i32, i32, ptr, ptr }
%struct.anon = type { i16, [2 x i8] }
%struct.rb_iseq_location_struct = type { i64, i64, i64, i32, i32, %struct.rb_code_location_struct }
%struct.rb_code_location_struct = type { %struct.rb_code_position_struct, %struct.rb_code_position_struct }
%struct.rb_code_position_struct = type { i32, i32 }
%struct.iseq_insn_info = type { ptr, ptr, i32, ptr }
%struct.anon.19 = type { i64, i64, i64, i64, ptr }
%union.anon.20 = type { ptr }
%struct.rbimpl_size_mul_overflow_tag = type { i8, i64 }
%struct.RBasic = type { i64, i64 }
%struct.st_table = type { i8, i8, i8, i32, ptr, i64, ptr, i64, i64, ptr }
%struct.ibf_dump = type { ptr, %struct.ibf_dump_buffer, ptr }
%struct.ibf_dump_buffer = type { i64, ptr }
%struct.RString = type { %struct.RBasic, i64, %union.anon.39 }
%union.anon.39 = type { %struct.anon.40 }
%struct.anon.40 = type { ptr, %union.anon.41 }
%union.anon.41 = type { i64 }

@rb_eRuntimeError = external global i64, align 8
@.str.226 = private unnamed_addr constant [18 x i8] c"dump size exceeds\00", align 1

; Function Attrs: inlinehint nounwind sspstrong willreturn memory(read) uwtable
define internal i64 @RSTRING_LEN(i64 noundef %0) #8 {
  %2 = alloca i64, align 8
  store i64 %0, ptr %2, align 8, !tbaa !7
  %3 = load i64, ptr %2, align 8, !tbaa !7
  %4 = inttoptr i64 %3 to ptr
  %5 = getelementptr inbounds nuw %struct.RString, ptr %4, i32 0, i32 1
  %6 = load i64, ptr %5, align 8, !tbaa !771
  ret i64 %6
}

; Function Attrs: nounwind sspstrong uwtable
define internal i32 @ibf_table_lookup(ptr noundef %0, i64 noundef %1) #0 {
  %3 = alloca i32, align 4
  %4 = alloca ptr, align 8
  %5 = alloca i64, align 8
  %6 = alloca i64, align 8
  %7 = alloca i32, align 4
  store ptr %0, ptr %4, align 8, !tbaa !181
  store i64 %1, ptr %5, align 8, !tbaa !7
  call void @llvm.lifetime.start.p0(i64 8, ptr %6) #31
  %8 = load ptr, ptr %4, align 8, !tbaa !181
  %9 = load i64, ptr %5, align 8, !tbaa !7
  %10 = call i32 @rb_st_lookup(ptr noundef %8, i64 noundef %9, ptr noundef %6)
  %11 = icmp ne i32 %10, 0
  br i1 %11, label %12, label %15

12:                                               ; preds = %2
  %13 = load i64, ptr %6, align 8, !tbaa !7
  %14 = trunc i64 %13 to i32
  store i32 %14, ptr %3, align 4
  store i32 1, ptr %7, align 4
  br label %16

15:                                               ; preds = %2
  store i32 -1, ptr %3, align 4
  store i32 1, ptr %7, align 4
  br label %16

16:                                               ; preds = %15, %12
  call void @llvm.lifetime.end.p0(i64 8, ptr %6) #31
  %17 = load i32, ptr %3, align 4
  ret i32 %17
}

; Function Attrs: nounwind sspstrong uwtable
define internal i32 @ibf_dump_pos(ptr noundef %0) #0 {
  %2 = alloca ptr, align 8
  %3 = alloca i64, align 8
  store ptr %0, ptr %2, align 8, !tbaa !221
  call void @llvm.lifetime.start.p0(i64 8, ptr %3) #31
  %4 = load ptr, ptr %2, align 8, !tbaa !221
  %5 = getelementptr inbounds nuw %struct.ibf_dump, ptr %4, i32 0, i32 2
  %6 = load ptr, ptr %5, align 8, !tbaa !237
  %7 = getelementptr inbounds nuw %struct.ibf_dump_buffer, ptr %6, i32 0, i32 0
  %8 = load i64, ptr %7, align 8, !tbaa !238
  %9 = call i64 @RSTRING_LEN(i64 noundef %8) #35
  store i64 %9, ptr %3, align 8, !tbaa !7
  %10 = load i64, ptr %3, align 8, !tbaa !7
  %11 = icmp sge i64 %10, 4294967295
  br i1 %11, label %12, label %14

12:                                               ; preds = %1
  %13 = load i64, ptr @rb_eRuntimeError, align 8, !tbaa !7
  call void (i64, ptr, ...) @rb_raise(i64 noundef %13, ptr noundef @.str.226) #36
  unreachable

14:                                               ; preds = %1
  %15 = load i64, ptr %3, align 8, !tbaa !7
  %16 = trunc i64 %15 to i32
  call void @llvm.lifetime.end.p0(i64 8, ptr %3) #31
  ret i32 %16
}

; Function Attrs: nounwind sspstrong uwtable
define internal i32 @ibf_table_find_or_insert(ptr noundef %0, i64 noundef %1) #0 {
  %3 = alloca ptr, align 8
  %4 = alloca i64, align 8
  %5 = alloca i32, align 4
  store ptr %0, ptr %3, align 8, !tbaa !181
  store i64 %1, ptr %4, align 8, !tbaa !7
  call void @llvm.lifetime.start.p0(i64 4, ptr %5) #31
  %6 = load ptr, ptr %3, align 8, !tbaa !181
  %7 = load i64, ptr %4, align 8, !tbaa !7
  %8 = call i32 @ibf_table_lookup(ptr noundef %6, i64 noundef %7)
  store i32 %8, ptr %5, align 4, !tbaa !41
  %9 = load i32, ptr %5, align 4, !tbaa !41
  %10 = icmp slt i32 %9, 0
  br i1 %10, label %11, label %21

11:                                               ; preds = %2
  %12 = load ptr, ptr %3, align 8, !tbaa !181
  %13 = getelementptr inbounds nuw %struct.st_table, ptr %12, i32 0, i32 5
  %14 = load i64, ptr %13, align 8, !tbaa !241
  %15 = trunc i64 %14 to i32
  store i32 %15, ptr %5, align 4, !tbaa !41
  %16 = load ptr, ptr %3, align 8, !tbaa !181
  %17 = load i64, ptr %4, align 8, !tbaa !7
  %18 = load i32, ptr %5, align 4, !tbaa !41
  %19 = sext i32 %18 to i64
  %20 = call i32 @rb_st_insert(ptr noundef %16, i64 noundef %17, i64 noundef %19)
  br label %21

21:                                               ; preds = %11, %2
  %22 = load i32, ptr %5, align 4, !tbaa !41
  call void @llvm.lifetime.end.p0(i64 4, ptr %5) #31
  ret i32 %22
}

; Function Attrs: inlinehint nounwind sspstrong willreturn memory(none) uwtable
define internal i64 @RB_INT2FIX(i64 noundef %0) #5 {
  %2 = alloca i64, align 8
  %3 = alloca i64, align 8
  %4 = alloca i64, align 8
  %5 = alloca i64, align 8
  %6 = alloca i64, align 8
  %7 = alloca i64, align 8
  store i64 %0, ptr %2, align 8, !tbaa !7
  call void @llvm.lifetime.start.p0(i64 8, ptr %3) #31
  %8 = load i64, ptr %2, align 8, !tbaa !7
  store i64 %8, ptr %3, align 8, !tbaa !7
  call void @llvm.lifetime.start.p0(i64 8, ptr %4) #31
  %9 = load i64, ptr %3, align 8, !tbaa !7
  %10 = shl i64 %9, 1
  %11 = add i64 %10, 1
  store i64 %11, ptr %4, align 8, !tbaa !7
  call void @llvm.lifetime.start.p0(i64 8, ptr %5) #31
  %12 = load i64, ptr %4, align 8, !tbaa !7
  store i64 %12, ptr %5, align 8, !tbaa !7
  call void @llvm.lifetime.start.p0(i64 8, ptr %6) #31
  %13 = load i64, ptr %5, align 8, !tbaa !7
  store i64 %13, ptr %6, align 8, !tbaa !7
  call void @llvm.lifetime.start.p0(i64 8, ptr %7) #31
  %14 = load i64, ptr %6, align 8, !tbaa !7
  store i64 %14, ptr %7, align 8, !tbaa !7
  %15 = load i64, ptr %7, align 8, !tbaa !7
  call void @llvm.lifetime.end.p0(i64 8, ptr %7) #31
  call void @llvm.lifetime.end.p0(i64 8, ptr %6) #31
  call void @llvm.lifetime.end.p0(i64 8, ptr %5) #31
  call void @llvm.lifetime.end.p0(i64 8, ptr %4) #31
  call void @llvm.lifetime.end.p0(i64 8, ptr %3) #31
  ret i64 %15
}

; Function Attrs: inlinehint nounwind sspstrong willreturn memory(none) uwtable
define internal { i8, i64 } @rbimpl_size_mul_overflow(i64 noundef %0, i64 noundef %1) #5 {
  %3 = alloca %struct.rbimpl_size_mul_overflow_tag, align 8
  %4 = alloca i64, align 8
  %5 = alloca i64, align 8
  store i64 %0, ptr %4, align 8, !tbaa !7
  store i64 %1, ptr %5, align 8, !tbaa !7
  call void @llvm.memset.p0.i64(ptr align 8 %3, i8 0, i64 16, i1 false)
  %6 = load i64, ptr %4, align 8, !tbaa !7
  %7 = load i64, ptr %5, align 8, !tbaa !7
  %8 = getelementptr inbounds nuw %struct.rbimpl_size_mul_overflow_tag, ptr %3, i32 0, i32 1
  %9 = call { i64, i1 } @llvm.umul.with.overflow.i64(i64 %6, i64 %7)
  %10 = extractvalue { i64, i1 } %9, 1
  %11 = extractvalue { i64, i1 } %9, 0
  store i64 %11, ptr %8, align 8
  %12 = getelementptr inbounds nuw %struct.rbimpl_size_mul_overflow_tag, ptr %3, i32 0, i32 0
  %13 = zext i1 %10 to i8
  store i8 %13, ptr %12, align 8, !tbaa !155
  %14 = load { i8, i64 }, ptr %3, align 8
  ret { i8, i64 } %14
}

; Function Attrs: nounwind sspstrong uwtable
define internal i32 @ibf_dump_write(ptr noundef %0, ptr noundef %1, i64 noundef %2) #0 {
  %4 = alloca ptr, align 8
  %5 = alloca ptr, align 8
  %6 = alloca i64, align 8
  %7 = alloca i32, align 4
  store ptr %0, ptr %4, align 8, !tbaa !221
  store ptr %1, ptr %5, align 8, !tbaa !152
  store i64 %2, ptr %6, align 8, !tbaa !7
  call void @llvm.lifetime.start.p0(i64 4, ptr %7) #31
  %8 = load ptr, ptr %4, align 8, !tbaa !221
  %9 = call i32 @ibf_dump_pos(ptr noundef %8)
  store i32 %9, ptr %7, align 4, !tbaa !41
  %10 = load ptr, ptr %4, align 8, !tbaa !221
  %11 = getelementptr inbounds nuw %struct.ibf_dump, ptr %10, i32 0, i32 2
  %12 = load ptr, ptr %11, align 8, !tbaa !237
  %13 = getelementptr inbounds nuw %struct.ibf_dump_buffer, ptr %12, i32 0, i32 0
  %14 = load i64, ptr %13, align 8, !tbaa !238
  %15 = load ptr, ptr %5, align 8, !tbaa !152
  %16 = load i64, ptr %6, align 8, !tbaa !7
  %17 = call i64 @rb_str_cat(i64 noundef %14, ptr noundef %15, i64 noundef %16)
  %18 = load i32, ptr %7, align 4, !tbaa !41
  call void @llvm.lifetime.end.p0(i64 4, ptr %7) #31
  ret i32 %18
}

; Function Attrs: nounwind sspstrong uwtable
define internal i64 @ibf_dump_object(ptr noundef %0, i64 noundef %1) #0 {
  %3 = alloca ptr, align 8
  %4 = alloca i64, align 8
  store ptr %0, ptr %3, align 8, !tbaa !221
  store i64 %1, ptr %4, align 8, !tbaa !7
  %5 = load ptr, ptr %3, align 8, !tbaa !221
  %6 = getelementptr inbounds nuw %struct.ibf_dump, ptr %5, i32 0, i32 2
  %7 = load ptr, ptr %6, align 8, !tbaa !237
  %8 = getelementptr inbounds nuw %struct.ibf_dump_buffer, ptr %7, i32 0, i32 1
  %9 = load ptr, ptr %8, align 8, !tbaa !248
  %10 = load i64, ptr %4, align 8, !tbaa !7
  %11 = call i32 @ibf_table_find_or_insert(ptr noundef %9, i64 noundef %10)
  %12 = sext i32 %11 to i64
  ret i64 %12
}

; Function Attrs: inlinehint nounwind sspstrong uwtable
define internal i64 @rb_ulong2num_inline(i64 noundef %0) #3 {
  %2 = alloca i64, align 8
  %3 = alloca i64, align 8
  store i64 %0, ptr %3, align 8, !tbaa !7
  %4 = load i64, ptr %3, align 8, !tbaa !7
  %5 = icmp ult i64 %4, 4611686018427387904
  br i1 %5, label %6, label %9

6:                                                ; preds = %1
  %7 = load i64, ptr %3, align 8, !tbaa !7
  %8 = call i64 @RB_INT2FIX(i64 noundef %7) #32
  store i64 %8, ptr %2, align 8
  br label %12

9:                                                ; preds = %1
  %10 = load i64, ptr %3, align 8, !tbaa !7
  %11 = call i64 @rb_uint2big(i64 noundef %10)
  store i64 %11, ptr %2, align 8
  br label %12

12:                                               ; preds = %9, %6
  %13 = load i64, ptr %2, align 8
  ret i64 %13
}

; Function Attrs: nounwind sspstrong uwtable
define internal i64 @ibf_dump_id(ptr noundef %0, i64 noundef %1) #0 {
  %3 = alloca i64, align 8
  %4 = alloca ptr, align 8
  %5 = alloca i64, align 8
  store ptr %0, ptr %4, align 8, !tbaa !221
  store i64 %1, ptr %5, align 8, !tbaa !7
  %6 = load i64, ptr %5, align 8, !tbaa !7
  %7 = icmp eq i64 %6, 0
  br i1 %7, label %12, label %8

8:                                                ; preds = %2
  %9 = load i64, ptr %5, align 8, !tbaa !7
  %10 = call ptr @rb_id2name(i64 noundef %9)
  %11 = icmp eq ptr %10, null
  br i1 %11, label %12, label %13

12:                                               ; preds = %8, %2
  store i64 0, ptr %3, align 8
  br label %18

13:                                               ; preds = %8
  %14 = load ptr, ptr %4, align 8, !tbaa !221
  %15 = load i64, ptr %5, align 8, !tbaa !7
  %16 = call i64 @rb_id2sym(i64 noundef %15)
  %17 = call i64 @ibf_dump_object(ptr noundef %14, i64 noundef %16)
  store i64 %17, ptr %3, align 8
  br label %18

18:                                               ; preds = %13, %12
  %19 = load i64, ptr %3, align 8
  ret i64 %19
}

; Function Attrs: inlinehint nounwind sspstrong uwtable
define internal i64 @rbimpl_size_mul_or_raise(i64 noundef %0, i64 noundef %1) #3 {
  %3 = alloca i64, align 8
  %4 = alloca i64, align 8
  %5 = alloca %struct.rbimpl_size_mul_overflow_tag, align 8
  store i64 %0, ptr %3, align 8, !tbaa !7
  store i64 %1, ptr %4, align 8, !tbaa !7
  call void @llvm.lifetime.start.p0(i64 16, ptr %5) #31
  %6 = load i64, ptr %3, align 8, !tbaa !7
  %7 = load i64, ptr %4, align 8, !tbaa !7
  %8 = call { i8, i64 } @rbimpl_size_mul_overflow(i64 noundef %6, i64 noundef %7) #32
  %9 = getelementptr inbounds nuw { i8, i64 }, ptr %5, i32 0, i32 0
  %10 = extractvalue { i8, i64 } %8, 0
  store i8 %10, ptr %9, align 8
  %11 = getelementptr inbounds nuw { i8, i64 }, ptr %5, i32 0, i32 1
  %12 = extractvalue { i8, i64 } %8, 1
  store i64 %12, ptr %11, align 8
  %13 = getelementptr inbounds nuw %struct.rbimpl_size_mul_overflow_tag, ptr %5, i32 0, i32 0
  %14 = load i8, ptr %13, align 8, !tbaa !155, !range !54, !noundef !55
  %15 = trunc i8 %14 to i1
  %16 = xor i1 %15, true
  %17 = xor i1 %16, true
  %18 = xor i1 %17, true
  %19 = zext i1 %18 to i32
  %20 = sext i32 %19 to i64
  %21 = call i64 @llvm.expect.i64(i64 %20, i64 1)
  %22 = icmp ne i64 %21, 0
  br i1 %22, label %23, label %26

23:                                               ; preds = %2
  %24 = getelementptr inbounds nuw %struct.rbimpl_size_mul_overflow_tag, ptr %5, i32 0, i32 1
  %25 = load i64, ptr %24, align 8, !tbaa !157
  call void @llvm.lifetime.end.p0(i64 16, ptr %5) #31
  ret i64 %25

26:                                               ; preds = %2
  %27 = load i64, ptr %3, align 8, !tbaa !7
  %28 = load i64, ptr %4, align 8, !tbaa !7
  call void @ruby_malloc_size_overflow(i64 noundef %27, i64 noundef %28) #36
  unreachable
}

; Function Attrs: nounwind sspstrong uwtable
define internal i32 @ibf_dump_local_table(ptr noundef %0, ptr noundef %1) #0 {
  %3 = alloca ptr, align 8
  %4 = alloca ptr, align 8
  %5 = alloca ptr, align 8
  %6 = alloca i32, align 4
  %7 = alloca ptr, align 8
  %8 = alloca i32, align 4
  %9 = alloca i64, align 8
  store ptr %0, ptr %3, align 8, !tbaa !221
  store ptr %1, ptr %4, align 8, !tbaa !11
  call void @llvm.lifetime.start.p0(i64 8, ptr %5) #31
  %10 = load ptr, ptr %4, align 8, !tbaa !11
  %11 = getelementptr inbounds nuw %struct.rb_iseq_struct, ptr %10, i32 0, i32 2
  %12 = load ptr, ptr %11, align 8, !tbaa !52
  store ptr %12, ptr %5, align 8, !tbaa !105
  call void @llvm.lifetime.start.p0(i64 4, ptr %6) #31
  %13 = load ptr, ptr %5, align 8, !tbaa !105
  %14 = getelementptr inbounds nuw %struct.rb_iseq_constant_body, ptr %13, i32 0, i32 13
  %15 = load i32, ptr %14, align 8, !tbaa !103
  store i32 %15, ptr %6, align 4, !tbaa !41
  call void @llvm.lifetime.start.p0(i64 8, ptr %7) #31
  %16 = load i32, ptr %6, align 4, !tbaa !41
  %17 = sext i32 %16 to i64
  %18 = call i64 @rbimpl_size_mul_or_raise(i64 noundef 8, i64 noundef %17)
  %19 = alloca i8, i64 %18, align 16
  store ptr %19, ptr %7, align 8, !tbaa !42
  call void @llvm.lifetime.start.p0(i64 4, ptr %8) #31
  store i32 0, ptr %8, align 4, !tbaa !41
  br label %20

20:                                               ; preds = %53, %2
  %21 = load i32, ptr %8, align 4, !tbaa !41
  %22 = load i32, ptr %6, align 4, !tbaa !41
  %23 = icmp slt i32 %21, %22
  br i1 %23, label %24, label %56

24:                                               ; preds = %20
  call void @llvm.lifetime.start.p0(i64 8, ptr %9) #31
  %25 = load ptr, ptr %3, align 8, !tbaa !221
  %26 = load ptr, ptr %5, align 8, !tbaa !105
  %27 = getelementptr inbounds nuw %struct.rb_iseq_constant_body, ptr %26, i32 0, i32 6
  %28 = load ptr, ptr %27, align 8, !tbaa !102
  %29 = load i32, ptr %8, align 4, !tbaa !41
  %30 = sext i32 %29 to i64
  %31 = getelementptr i64, ptr %28, i64 %30
  %32 = load i64, ptr %31, align 8, !tbaa !7
  %33 = call i64 @ibf_dump_id(ptr noundef %25, i64 noundef %32)
  store i64 %33, ptr %9, align 8, !tbaa !7
  %34 = load i64, ptr %9, align 8, !tbaa !7
  %35 = icmp eq i64 %34, 0
  br i1 %35, label %36, label %47

36:                                               ; preds = %24
  %37 = load ptr, ptr %3, align 8, !tbaa !221
  %38 = load ptr, ptr %5, align 8, !tbaa !105
  %39 = getelementptr inbounds nuw %struct.rb_iseq_constant_body, ptr %38, i32 0, i32 6
  %40 = load ptr, ptr %39, align 8, !tbaa !102
  %41 = load i32, ptr %8, align 4, !tbaa !41
  %42 = sext i32 %41 to i64
  %43 = getelementptr i64, ptr %40, i64 %42
  %44 = load i64, ptr %43, align 8, !tbaa !7
  %45 = call i64 @rb_ulong2num_inline(i64 noundef %44)
  %46 = call i64 @ibf_dump_object(ptr noundef %37, i64 noundef %45)
  store i64 %46, ptr %9, align 8, !tbaa !7
  br label %47

47:                                               ; preds = %36, %24
  %48 = load i64, ptr %9, align 8, !tbaa !7
  %49 = load ptr, ptr %7, align 8, !tbaa !42
  %50 = load i32, ptr %8, align 4, !tbaa !41
  %51 = sext i32 %50 to i64
  %52 = getelementptr i64, ptr %49, i64 %51
  store i64 %48, ptr %52, align 8, !tbaa !7
  call void @llvm.lifetime.end.p0(i64 8, ptr %9) #31
  br label %53

53:                                               ; preds = %47
  %54 = load i32, ptr %8, align 4, !tbaa !41
  %55 = add i32 %54, 1
  store i32 %55, ptr %8, align 4, !tbaa !41
  br label %20, !llvm.loop !1315

56:                                               ; preds = %20
  %57 = load ptr, ptr %3, align 8, !tbaa !221
  call void @ibf_dump_align(ptr noundef %57, i64 noundef 8)
  %58 = load ptr, ptr %3, align 8, !tbaa !221
  %59 = load ptr, ptr %7, align 8, !tbaa !42
  %60 = load i32, ptr %6, align 4, !tbaa !41
  %61 = sext i32 %60 to i64
  %62 = mul i64 8, %61
  %63 = call i32 @ibf_dump_write(ptr noundef %58, ptr noundef %59, i64 noundef %62)
  call void @llvm.lifetime.end.p0(i64 4, ptr %8) #31
  call void @llvm.lifetime.end.p0(i64 8, ptr %7) #31
  call void @llvm.lifetime.end.p0(i64 4, ptr %6) #31
  call void @llvm.lifetime.end.p0(i64 8, ptr %5) #31
  ret i32 %63
}