; Function Attrs: nounwind sspstrong uwtable
define internal fastcc i32 @ibf_dump_local_table(ptr noundef readonly captures(none) %0, ptr readonly captures(none) %.16.val) unnamed_addr #1 {
  %2 = alloca i64, align 8
  %3 = alloca i64, align 8
  %4 = getelementptr inbounds nuw i8, ptr %.16.val, i64 232
  %5 = load i32, ptr %4, align 8, !tbaa !168
  %6 = sext i32 %5 to i64
  %7 = icmp slt i32 %5, 0
  br i1 %7, label %8, label %rbimpl_size_mul_or_raise.exit, !prof !194

8:                                                ; preds = %1
  tail call void @ruby_malloc_size_overflow(i64 noundef 8, i64 noundef %6) #42
  unreachable

rbimpl_size_mul_or_raise.exit:                    ; preds = %1
  %9 = shl nuw nsw i64 %6, 3
  %10 = alloca i8, i64 %9, align 16
  %.not = icmp eq i32 %5, 0
  br i1 %.not, label %._crit_edge, label %.lr.ph

.lr.ph:                                           ; preds = %rbimpl_size_mul_or_raise.exit
  %11 = getelementptr inbounds nuw i8, ptr %.16.val, i64 144
  %12 = getelementptr i8, ptr %0, i64 24
  %wide.trip.count = zext nneg i32 %5 to i64
  br label %13

13:                                               ; preds = %.lr.ph, %ibf_dump_object.exit
  %indvars.iv = phi i64 [ 0, %.lr.ph ], [ %indvars.iv.next, %ibf_dump_object.exit ]
  %14 = load ptr, ptr %11, align 8, !tbaa !181
  %15 = getelementptr i64, ptr %14, i64 %indvars.iv
  %16 = load i64, ptr %15, align 8, !tbaa !37
  %17 = icmp eq i64 %16, 0
  br i1 %17, label %ibf_dump_id.exit.thread, label %18

18:                                               ; preds = %13
  %19 = call ptr @rb_id2name(i64 noundef %16) #38
  %20 = icmp eq ptr %19, null
  br i1 %20, label %ibf_dump_id.exit.thread, label %21

21:                                               ; preds = %18
  %22 = call i64 @rb_id2sym(i64 noundef %16) #38
  %.val.i = load ptr, ptr %12, align 8, !tbaa !307
  %23 = getelementptr i8, ptr %.val.i, i64 8
  %.val.val.i = load ptr, ptr %23, align 8, !tbaa !317
  call void @llvm.lifetime.start.p0(i64 8, ptr nonnull %3) #38
  %24 = call i32 @rb_st_lookup(ptr noundef %.val.val.i, i64 noundef %22, ptr noundef nonnull %3) #38
  %.not.i.i.i.i = icmp eq i32 %24, 0
  %25 = load i64, ptr %3, align 8
  call void @llvm.lifetime.end.p0(i64 8, ptr nonnull %3) #38
  %26 = and i64 %25, 2147483648
  %27 = icmp ne i64 %26, 0
  %28 = select i1 %.not.i.i.i.i, i1 true, i1 %27
  br i1 %28, label %29, label %.ibf_table_find_or_insert.exit_crit_edge.i.i

.ibf_table_find_or_insert.exit_crit_edge.i.i:     ; preds = %21
  %.pre.i.i = and i64 %25, 2147483647
  br label %ibf_dump_id.exit

29:                                               ; preds = %21
  %30 = getelementptr inbounds nuw i8, ptr %.val.val.i, i64 16
  %31 = load i64, ptr %30, align 8, !tbaa !311
  %sext.i.i.i = shl i64 %31, 32
  %32 = ashr exact i64 %sext.i.i.i, 32
  %33 = call i32 @rb_st_insert(ptr noundef %.val.val.i, i64 noundef %22, i64 noundef %32) #38
  br label %ibf_dump_id.exit

ibf_dump_id.exit:                                 ; preds = %.ibf_table_find_or_insert.exit_crit_edge.i.i, %29
  %.0.i = phi i64 [ %.pre.i.i, %.ibf_table_find_or_insert.exit_crit_edge.i.i ], [ %32, %29 ]
  %34 = icmp eq i64 %.0.i, 0
  br i1 %34, label %ibf_dump_id.exit.thread, label %ibf_dump_object.exit

ibf_dump_id.exit.thread:                          ; preds = %13, %18, %ibf_dump_id.exit
  %35 = load ptr, ptr %11, align 8, !tbaa !181
  %36 = getelementptr i64, ptr %35, i64 %indvars.iv
  %37 = load i64, ptr %36, align 8, !tbaa !37
  %38 = icmp ult i64 %37, 4611686018427387904
  br i1 %38, label %39, label %42

39:                                               ; preds = %ibf_dump_id.exit.thread
  %40 = shl nuw nsw i64 %37, 1
  %41 = or disjoint i64 %40, 1
  br label %rb_ulong2num_inline.exit

42:                                               ; preds = %ibf_dump_id.exit.thread
  %43 = call i64 @rb_uint2big(i64 noundef %37) #38
  br label %rb_ulong2num_inline.exit

rb_ulong2num_inline.exit:                         ; preds = %39, %42
  %.0.i22 = phi i64 [ %41, %39 ], [ %43, %42 ]
  %.val21 = load ptr, ptr %12, align 8, !tbaa !307
  %44 = getelementptr i8, ptr %.val21, i64 8
  %.val21.val = load ptr, ptr %44, align 8, !tbaa !317
  call void @llvm.lifetime.start.p0(i64 8, ptr nonnull %2) #38
  %45 = call i32 @rb_st_lookup(ptr noundef %.val21.val, i64 noundef %.0.i22, ptr noundef nonnull %2) #38
  %.not.i.i.i = icmp eq i32 %45, 0
  %46 = load i64, ptr %2, align 8
  call void @llvm.lifetime.end.p0(i64 8, ptr nonnull %2) #38
  %47 = and i64 %46, 2147483648
  %48 = icmp ne i64 %47, 0
  %49 = select i1 %.not.i.i.i, i1 true, i1 %48
  br i1 %49, label %50, label %.ibf_table_find_or_insert.exit_crit_edge.i

.ibf_table_find_or_insert.exit_crit_edge.i:       ; preds = %rb_ulong2num_inline.exit
  %.pre.i = and i64 %46, 2147483647
  br label %ibf_dump_object.exit

50:                                               ; preds = %rb_ulong2num_inline.exit
  %51 = getelementptr inbounds nuw i8, ptr %.val21.val, i64 16
  %52 = load i64, ptr %51, align 8, !tbaa !311
  %sext.i.i = shl i64 %52, 32
  %53 = ashr exact i64 %sext.i.i, 32
  %54 = call i32 @rb_st_insert(ptr noundef %.val21.val, i64 noundef %.0.i22, i64 noundef %53) #38
  br label %ibf_dump_object.exit

ibf_dump_object.exit:                             ; preds = %50, %.ibf_table_find_or_insert.exit_crit_edge.i, %ibf_dump_id.exit
  %.0 = phi i64 [ %.0.i, %ibf_dump_id.exit ], [ %.pre.i, %.ibf_table_find_or_insert.exit_crit_edge.i ], [ %53, %50 ]
  %55 = getelementptr i64, ptr %10, i64 %indvars.iv
  store i64 %.0, ptr %55, align 8, !tbaa !37
  %indvars.iv.next = add nuw nsw i64 %indvars.iv, 1
  %exitcond.not = icmp eq i64 %indvars.iv.next, %wide.trip.count
  br i1 %exitcond.not, label %._crit_edge, label %13, !llvm.loop !1107

._crit_edge:                                      ; preds = %ibf_dump_object.exit, %rbimpl_size_mul_or_raise.exit
  call fastcc void @ibf_dump_align(ptr noundef %0, i64 noundef 8)
  %56 = getelementptr i8, ptr %0, i64 24
  %.val = load ptr, ptr %56, align 8, !tbaa !307
  %.val.val = load i64, ptr %.val, align 8, !tbaa !308
  %57 = inttoptr i64 %.val.val to ptr
  %58 = getelementptr inbounds nuw i8, ptr %57, i64 16
  %59 = load i64, ptr %58, align 8, !tbaa !309
  %60 = icmp sgt i64 %59, 4294967294
  br i1 %60, label %61, label %ibf_dump_write.exit

61:                                               ; preds = %._crit_edge
  %62 = load i64, ptr @rb_eRuntimeError, align 8, !tbaa !37
  call void (i64, ptr, ...) @rb_raise(i64 noundef %62, ptr noundef nonnull @.str.226) #42
  unreachable

ibf_dump_write.exit:                              ; preds = %._crit_edge
  %63 = trunc i64 %59 to i32
  %64 = call i64 @rb_str_cat(i64 noundef %.val.val, ptr noundef nonnull %10, i64 noundef %9) #38
  ret i32 %63
}